; Function Attrs: mustprogress nofree norecurse nosync nounwind willreturn memory(read, inaccessiblemem: none) uwtable
define dso_local ptr @PyErr_Occurred() local_unnamed_addr #5 {
  %1 = tail call align 8 ptr @llvm.threadlocal.address.p0(ptr align 8 @_Py_tss_tstate)
  %2 = load ptr, ptr %1, align 8, !tbaa !25
  %3 = getelementptr i8, ptr %2, i64 112
  %.val = load ptr, ptr %3, align 8, !tbaa !4
  %4 = icmp eq ptr %.val, null
  br i1 %4, label %_PyErr_Occurred.exit, label %5

5:                                                ; preds = %0
  %6 = getelementptr i8, ptr %.val, i64 8
  %.val.i = load ptr, ptr %6, align 8, !tbaa !21
  br label %_PyErr_Occurred.exit

_PyErr_Occurred.exit:                             ; preds = %0, %5
  %.0.i = phi ptr [ %.val.i, %5 ], [ null, %0 ]
  ret ptr %.0.i
}